target datalayout = "e-m:e-p270:32:32-p271:32:32-p272:64:64-i64:64-i128:128-f80:128-n8:16:32:64-S128"
target triple = "x86_64-unknown-linux-gnu"

%"class.re2::Regexp" = type { i8, i8, i16, i16, i16, %union.anon, ptr, %union.anon.0 }
%union.anon = type { ptr }
%union.anon.0 = type { %struct.anon.1 }
%struct.anon.1 = type { i32, ptr }
%struct.anon = type { i32, i32 }

; Function Attrs: mustprogress nounwind uwtable
define linkonce_odr noundef i32 @_ZN3re2anENS_6Regexp10ParseFlagsES1_(i32 noundef %a, i32 noundef %b) #1 comdat {
entry:
  %a.addr = alloca i32, align 4
  %b.addr = alloca i32, align 4
  store i32 %a, ptr %a.addr, align 4
  store i32 %b, ptr %b.addr, align 4
  %0 = load i32, ptr %a.addr, align 4
  %1 = load i32, ptr %b.addr, align 4
  %and = and i32 %0, %1
  ret i32 %and
}

; Function Attrs: mustprogress nounwind uwtable
define linkonce_odr noundef i32 @_ZN3re26Regexp11parse_flagsEv(ptr noundef nonnull align 8 dereferenceable(40) %this) #1 comdat align 2 {
entry:
  %this.addr = alloca ptr, align 8
  store ptr %this, ptr %this.addr, align 8
  %this1 = load ptr, ptr %this.addr, align 8
  %parse_flags_ = getelementptr inbounds %"class.re2::Regexp", ptr %this1, i32 0, i32 2
  %0 = load i16, ptr %parse_flags_, align 2
  %conv = zext i16 %0 to i32
  ret i32 %conv
}

; Function Attrs: mustprogress nounwind uwtable
define linkonce_odr noundef i32 @_ZN3re26Regexp4runeEv(ptr noundef nonnull align 8 dereferenceable(40) %this) #1 comdat align 2 {
entry:
  %this.addr = alloca ptr, align 8
  store ptr %this, ptr %this.addr, align 8
  %this1 = load ptr, ptr %this.addr, align 8
  %0 = getelementptr inbounds %"class.re2::Regexp", ptr %this1, i32 0, i32 7
  %1 = load i32, ptr %0, align 8
  ret i32 %1
}

; Function Attrs: mustprogress nounwind uwtable
define linkonce_odr noundef i32 @_ZN3re26Regexp3maxEv(ptr noundef nonnull align 8 dereferenceable(40) %this) #1 comdat align 2 {
entry:
  %this.addr = alloca ptr, align 8
  store ptr %this, ptr %this.addr, align 8
  %this1 = load ptr, ptr %this.addr, align 8
  %0 = getelementptr inbounds %"class.re2::Regexp", ptr %this1, i32 0, i32 7
  %max_ = getelementptr inbounds %struct.anon, ptr %0, i32 0, i32 0
  %1 = load i32, ptr %max_, align 8
  ret i32 %1
}

; Function Attrs: mustprogress nounwind uwtable
define linkonce_odr noundef ptr @_ZN3re26Regexp3subEv(ptr noundef nonnull align 8 dereferenceable(40) %this) #1 comdat align 2 {
entry:
  %retval = alloca ptr, align 8
  %this.addr = alloca ptr, align 8
  store ptr %this, ptr %this.addr, align 8
  %this1 = load ptr, ptr %this.addr, align 8
  %nsub_ = getelementptr inbounds %"class.re2::Regexp", ptr %this1, i32 0, i32 4
  %0 = load i16, ptr %nsub_, align 2
  %conv = zext i16 %0 to i32
  %cmp = icmp sle i32 %conv, 1
  br i1 %cmp, label %if.then, label %if.else

if.then:                                          ; preds = %entry
  %1 = getelementptr inbounds %"class.re2::Regexp", ptr %this1, i32 0, i32 5
  store ptr %1, ptr %retval, align 8
  br label %return

if.else:                                          ; preds = %entry
  %2 = getelementptr inbounds %"class.re2::Regexp", ptr %this1, i32 0, i32 5
  %3 = load ptr, ptr %2, align 8
  store ptr %3, ptr %retval, align 8
  br label %return

return:                                           ; preds = %if.else, %if.then
  %4 = load ptr, ptr %retval, align 8
  ret ptr %4
}

; Function Attrs: mustprogress nounwind uwtable
define linkonce_odr noundef i32 @_ZN3re26Regexp2opEv(ptr noundef nonnull align 8 dereferenceable(40) %this) #1 comdat align 2 {
entry:
  %this.addr = alloca ptr, align 8
  store ptr %this, ptr %this.addr, align 8
  %this1 = load ptr, ptr %this.addr, align 8
  %op_ = getelementptr inbounds %"class.re2::Regexp", ptr %this1, i32 0, i32 0
  %0 = load i8, ptr %op_, align 8
  %conv = zext i8 %0 to i32
  ret i32 %conv
}

; Function Attrs: mustprogress uwtable
define noundef zeroext i1 @_ZN3re210PCREWalker9PostVisitEPNS_6RegexpEbbPbi(ptr noundef nonnull align 8 dereferenceable(96) %this, ptr noundef %re, i1 noundef zeroext %parent_arg, i1 noundef zeroext %pre_arg, ptr noundef %child_args, i32 noundef %nchild_args) unnamed_addr #0 align 2 {
entry:
  %retval = alloca i1, align 1
  %this.addr = alloca ptr, align 8
  %re.addr = alloca ptr, align 8
  %parent_arg.addr = alloca i8, align 1
  %pre_arg.addr = alloca i8, align 1
  %child_args.addr = alloca ptr, align 8
  %nchild_args.addr = alloca i32, align 4
  %i = alloca i32, align 4
  store ptr %this, ptr %this.addr, align 8
  store ptr %re, ptr %re.addr, align 8
  %frombool = zext i1 %parent_arg to i8
  store i8 %frombool, ptr %parent_arg.addr, align 1
  %frombool1 = zext i1 %pre_arg to i8
  store i8 %frombool1, ptr %pre_arg.addr, align 1
  store ptr %child_args, ptr %child_args.addr, align 8
  store i32 %nchild_args, ptr %nchild_args.addr, align 4
  store i32 0, ptr %i, align 4
  br label %for.cond

for.cond:                                         ; preds = %for.inc, %entry
  %0 = load i32, ptr %i, align 4
  %1 = load i32, ptr %nchild_args.addr, align 4
  %cmp = icmp slt i32 %0, %1
  br i1 %cmp, label %for.body, label %for.end

for.body:                                         ; preds = %for.cond
  %2 = load ptr, ptr %child_args.addr, align 8
  %3 = load i32, ptr %i, align 4
  %idxprom = sext i32 %3 to i64
  %arrayidx = getelementptr inbounds i8, ptr %2, i64 %idxprom
  %4 = load i8, ptr %arrayidx, align 1
  %tobool = trunc i8 %4 to i1
  br i1 %tobool, label %if.end, label %if.then

if.then:                                          ; preds = %for.body
  store i1 false, ptr %retval, align 1
  br label %return

if.end:                                           ; preds = %for.body
  br label %for.inc

for.inc:                                          ; preds = %if.end
  %5 = load i32, ptr %i, align 4
  %inc = add nsw i32 %5, 1
  store i32 %inc, ptr %i, align 4
  br label %for.cond, !llvm.loop !4

for.end:                                          ; preds = %for.cond
  %6 = load ptr, ptr %re.addr, align 8
  %call = call noundef i32 @_ZN3re26Regexp2opEv(ptr noundef nonnull align 8 dereferenceable(40) %6)
  switch i32 %call, label %sw.default [
    i32 7, label %sw.bb
    i32 8, label %sw.bb
    i32 9, label %sw.bb
    i32 10, label %sw.bb8
    i32 3, label %sw.bb16
    i32 19, label %sw.bb21
    i32 2, label %sw.bb21
    i32 14, label %sw.bb27
  ]

sw.bb:                                            ; preds = %for.end, %for.end, %for.end
  %7 = load ptr, ptr %re.addr, align 8
  %call3 = call noundef ptr @_ZN3re26Regexp3subEv(ptr noundef nonnull align 8 dereferenceable(40) %7)
  %arrayidx4 = getelementptr inbounds ptr, ptr %call3, i64 0
  %8 = load ptr, ptr %arrayidx4, align 8
  %call5 = call noundef zeroext i1 @_ZN3re2L16CanBeEmptyStringEPNS_6RegexpE(ptr noundef %8)
  br i1 %call5, label %if.then6, label %if.end7

if.then6:                                         ; preds = %sw.bb
  store i1 false, ptr %retval, align 1
  br label %return

if.end7:                                          ; preds = %sw.bb
  br label %sw.epilog

sw.bb8:                                           ; preds = %for.end
  %9 = load ptr, ptr %re.addr, align 8
  %call9 = call noundef i32 @_ZN3re26Regexp3maxEv(ptr noundef nonnull align 8 dereferenceable(40) %9)
  %cmp10 = icmp eq i32 %call9, -1
  br i1 %cmp10, label %land.lhs.true, label %if.end15

land.lhs.true:                                    ; preds = %sw.bb8
  %10 = load ptr, ptr %re.addr, align 8
  %call11 = call noundef ptr @_ZN3re26Regexp3subEv(ptr noundef nonnull align 8 dereferenceable(40) %10)
  %arrayidx12 = getelementptr inbounds ptr, ptr %call11, i64 0
  %11 = load ptr, ptr %arrayidx12, align 8
  %call13 = call noundef zeroext i1 @_ZN3re2L16CanBeEmptyStringEPNS_6RegexpE(ptr noundef %11)
  br i1 %call13, label %if.then14, label %if.end15

if.then14:                                        ; preds = %land.lhs.true
  store i1 false, ptr %retval, align 1
  br label %return

if.end15:                                         ; preds = %land.lhs.true, %sw.bb8
  br label %sw.epilog

sw.bb16:                                          ; preds = %for.end
  %12 = load ptr, ptr %re.addr, align 8
  %call17 = call noundef i32 @_ZN3re26Regexp4runeEv(ptr noundef nonnull align 8 dereferenceable(40) %12)
  %cmp18 = icmp eq i32 %call17, 11
  br i1 %cmp18, label %if.then19, label %if.end20

if.then19:                                        ; preds = %sw.bb16
  store i1 false, ptr %retval, align 1
  br label %return

if.end20:                                         ; preds = %sw.bb16
  br label %sw.epilog

sw.bb21:                                          ; preds = %for.end, %for.end
  %13 = load ptr, ptr %re.addr, align 8
  %call22 = call noundef i32 @_ZN3re26Regexp11parse_flagsEv(ptr noundef nonnull align 8 dereferenceable(40) %13)
  %call23 = call noundef i32 @_ZN3re2anENS_6Regexp10ParseFlagsES1_(i32 noundef %call22, i32 noundef 8192)
  %tobool24 = icmp ne i32 %call23, 0
  br i1 %tobool24, label %if.then25, label %if.end26

if.then25:                                        ; preds = %sw.bb21
  store i1 false, ptr %retval, align 1
  br label %return

if.end26:                                         ; preds = %sw.bb21
  br label %sw.epilog

sw.bb27:                                          ; preds = %for.end
  store i1 false, ptr %retval, align 1
  br label %return

sw.default:                                       ; preds = %for.end
  br label %sw.epilog

sw.epilog:                                        ; preds = %sw.default, %if.end26, %if.end20, %if.end15, %if.end7
  store i1 true, ptr %retval, align 1
  br label %return

return:                                           ; preds = %sw.epilog, %sw.bb27, %if.then25, %if.then19, %if.then14, %if.then6, %if.then
  %14 = load i1, ptr %retval, align 1
  ret i1 %14
}