; Function Attrs: mustprogress uwtable
define noundef zeroext i1 @_ZN3re210PCREWalker9PostVisitEPNS_6RegexpEbbPbi(ptr nocapture nonnull readnone align 8 %this, ptr nocapture noundef readonly %re, i1 zeroext %parent_arg, i1 zeroext %pre_arg, ptr nocapture noundef readonly %child_args, i32 noundef %nchild_args) unnamed_addr #0 align 2 {
entry:
  %cmp12 = icmp sgt i32 %nchild_args, 0
  br i1 %cmp12, label %for.body.preheader, label %for.end

for.body.preheader:                               ; preds = %entry
  %wide.trip.count = zext nneg i32 %nchild_args to i64
  br label %for.body

for.cond:                                         ; preds = %for.body
  %indvars.iv.next = add nuw nsw i64 %indvars.iv, 1
  %exitcond.not = icmp eq i64 %indvars.iv.next, %wide.trip.count
  br i1 %exitcond.not, label %for.end, label %for.body, !llvm.loop !4

for.body:                                         ; preds = %for.body.preheader, %for.cond
  %indvars.iv = phi i64 [ 0, %for.body.preheader ], [ %indvars.iv.next, %for.cond ]
  %arrayidx = getelementptr inbounds i8, ptr %child_args, i64 %indvars.iv
  %0 = load i8, ptr %arrayidx, align 1
  %1 = and i8 %0, 1
  %tobool.not = icmp eq i8 %1, 0
  br i1 %tobool.not, label %return, label %for.cond

for.end:                                          ; preds = %for.cond, %entry
  %2 = load i8, ptr %re, align 8
  switch i8 %2, label %sw.epilog [
    i8 7, label %sw.bb
    i8 8, label %sw.bb
    i8 9, label %sw.bb
    i8 10, label %sw.bb8
    i8 3, label %sw.bb16
    i8 19, label %sw.bb21
    i8 2, label %sw.bb21
    i8 14, label %return
  ]

sw.bb:                                            ; preds = %for.end, %for.end, %for.end
  %nsub_.i = getelementptr inbounds i8, ptr %re, i64 6
  %3 = load i16, ptr %nsub_.i, align 2
  %cmp.i = icmp ult i16 %3, 2
  %4 = getelementptr inbounds i8, ptr %re, i64 8
  %5 = load ptr, ptr %4, align 8
  %retval.0.i = select i1 %cmp.i, ptr %4, ptr %5
  %6 = load ptr, ptr %retval.0.i, align 8
  %call5 = tail call fastcc noundef zeroext i1 @_ZN3re2L16CanBeEmptyStringEPNS_6RegexpE(ptr noundef %6)
  br i1 %call5, label %return, label %sw.epilog

sw.bb8:                                           ; preds = %for.end
  %7 = getelementptr inbounds i8, ptr %re, i64 24
  %8 = load i32, ptr %7, align 8
  %cmp10 = icmp eq i32 %8, -1
  br i1 %cmp10, label %land.lhs.true, label %sw.epilog

land.lhs.true:                                    ; preds = %sw.bb8
  %nsub_.i8 = getelementptr inbounds i8, ptr %re, i64 6
  %9 = load i16, ptr %nsub_.i8, align 2
  %cmp.i9 = icmp ult i16 %9, 2
  %10 = getelementptr inbounds i8, ptr %re, i64 8
  %11 = load ptr, ptr %10, align 8
  %retval.0.i10 = select i1 %cmp.i9, ptr %10, ptr %11
  %12 = load ptr, ptr %retval.0.i10, align 8
  %call13 = tail call fastcc noundef zeroext i1 @_ZN3re2L16CanBeEmptyStringEPNS_6RegexpE(ptr noundef %12)
  br i1 %call13, label %return, label %sw.epilog

sw.bb16:                                          ; preds = %for.end
  %13 = getelementptr inbounds i8, ptr %re, i64 24
  %14 = load i32, ptr %13, align 8
  %cmp18 = icmp eq i32 %14, 11
  br i1 %cmp18, label %return, label %sw.epilog

sw.bb21:                                          ; preds = %for.end, %for.end
  %parse_flags_.i = getelementptr inbounds i8, ptr %re, i64 2
  %15 = load i16, ptr %parse_flags_.i, align 2
  %16 = and i16 %15, 8192
  %tobool24.not = icmp eq i16 %16, 0
  br i1 %tobool24.not, label %sw.epilog, label %return

sw.epilog:                                        ; preds = %for.end, %sw.bb21, %sw.bb16, %sw.bb8, %land.lhs.true, %sw.bb
  br label %return

return:                                           ; preds = %for.body, %for.end, %sw.bb21, %sw.bb16, %land.lhs.true, %sw.bb, %sw.epilog
  %retval.0 = phi i1 [ true, %sw.epilog ], [ false, %sw.bb ], [ false, %land.lhs.true ], [ false, %sw.bb16 ], [ false, %sw.bb21 ], [ false, %for.end ], [ false, %for.body ]
  ret i1 %retval.0
}